; Function Attrs: inlinehint mustprogress uwtable
define internal fastcc void @_ZN2cvL13parallel_for_ERKNS_5RangeESt8functionIFvS2_EEd(ptr noundef nonnull align 4 dereferenceable(8) %0, ptr noundef nonnull %1) unnamed_addr #6 personality ptr @__gxx_personality_v0 {
  %3 = alloca %"class.cv::ParallelLoopBodyLambdaWrapper", align 8
  %4 = alloca %"class.std::function", align 8
  call void @llvm.lifetime.start.p0(i64 40, ptr nonnull %3) #17
  %5 = getelementptr inbounds nuw i8, ptr %4, i64 16
  %6 = getelementptr inbounds nuw i8, ptr %4, i64 24
  %7 = getelementptr inbounds nuw i8, ptr %1, i64 16
  call void @llvm.memset.p0.i64(ptr noundef nonnull align 8 dereferenceable(32) %4, i8 0, i64 32, i1 false)
  %8 = load ptr, ptr %7, align 8, !tbaa !100
  %.not.i.i.not.i = icmp eq ptr %8, null
  br i1 %.not.i.i.not.i, label %_ZNSt8functionIFvRKN2cv5RangeEEEC2ERKS5_.exit.thread, label %11

_ZNSt8functionIFvRKN2cv5RangeEEEC2ERKS5_.exit.thread: ; preds = %2
  store ptr getelementptr inbounds nuw inrange(-16, 24) (i8, ptr @_ZTVN2cv29ParallelLoopBodyLambdaWrapperE, i64 16), ptr %3, align 8, !tbaa !108
  %9 = getelementptr inbounds nuw i8, ptr %3, i64 8
  %10 = getelementptr inbounds nuw i8, ptr %3, i64 24
  call void @llvm.memset.p0.i64(ptr noundef nonnull align 8 dereferenceable(32) %9, i8 0, i64 32, i1 false)
  br label %_ZN2cv29ParallelLoopBodyLambdaWrapperC2ESt8functionIFvRKNS_5RangeEEE.exit

11:                                               ; preds = %2
  %12 = invoke noundef zeroext i1 %8(ptr noundef nonnull align 8 dereferenceable(32) %4, ptr noundef nonnull align 8 dereferenceable(32) %1, i32 noundef 2)
          to label %_ZNSt8functionIFvRKN2cv5RangeEEEC2ERKS5_.exit unwind label %13

13:                                               ; preds = %11
  %14 = landingpad { ptr, i32 }
          cleanup
  %15 = load ptr, ptr %5, align 8, !tbaa !100
  %.not.i.i = icmp eq ptr %15, null
  br i1 %.not.i.i, label %common.resume, label %16

16:                                               ; preds = %13
  %17 = invoke noundef zeroext i1 %15(ptr noundef nonnull align 8 dereferenceable(32) %4, ptr noundef nonnull align 8 dereferenceable(32) %4, i32 noundef 3)
          to label %common.resume unwind label %18

18:                                               ; preds = %16
  %19 = landingpad { ptr, i32 }
          catch ptr null
  %20 = extractvalue { ptr, i32 } %19, 0
  call void @__clang_call_terminate(ptr %20) #21
  unreachable

common.resume:                                    ; preds = %13, %16, %_ZNSt14_Function_baseD2Ev.exit8
  %common.resume.op = phi { ptr, i32 } [ %.pn, %_ZNSt14_Function_baseD2Ev.exit8 ], [ %14, %16 ], [ %14, %13 ]
  resume { ptr, i32 } %common.resume.op

_ZNSt8functionIFvRKN2cv5RangeEEEC2ERKS5_.exit:    ; preds = %11
  %21 = getelementptr inbounds nuw i8, ptr %1, i64 24
  %22 = load ptr, ptr %21, align 8, !tbaa !97
  store ptr %22, ptr %6, align 8, !tbaa !97
  %23 = load ptr, ptr %7, align 8, !tbaa !100
  store ptr %23, ptr %5, align 8, !tbaa !100
  store ptr getelementptr inbounds nuw inrange(-16, 24) (i8, ptr @_ZTVN2cv29ParallelLoopBodyLambdaWrapperE, i64 16), ptr %3, align 8, !tbaa !108
  %24 = getelementptr inbounds nuw i8, ptr %3, i64 8
  %25 = getelementptr inbounds nuw i8, ptr %3, i64 24
  %26 = getelementptr inbounds nuw i8, ptr %3, i64 32
  call void @llvm.memset.p0.i64(ptr noundef nonnull align 8 dereferenceable(32) %24, i8 0, i64 32, i1 false)
  %.not.i.i.not.i.i = icmp eq ptr %23, null
  br i1 %.not.i.i.not.i.i, label %_ZN2cv29ParallelLoopBodyLambdaWrapperC2ESt8functionIFvRKNS_5RangeEEE.exit, label %27

27:                                               ; preds = %_ZNSt8functionIFvRKN2cv5RangeEEEC2ERKS5_.exit
  %28 = invoke noundef zeroext i1 %23(ptr noundef nonnull align 8 dereferenceable(32) %24, ptr noundef nonnull align 8 dereferenceable(32) %4, i32 noundef 2)
          to label %29 unwind label %32

29:                                               ; preds = %27
  %30 = load ptr, ptr %6, align 8, !tbaa !97
  store ptr %30, ptr %26, align 8, !tbaa !97
  %31 = load ptr, ptr %5, align 8, !tbaa !100
  store ptr %31, ptr %25, align 8, !tbaa !100
  br label %_ZN2cv29ParallelLoopBodyLambdaWrapperC2ESt8functionIFvRKNS_5RangeEEE.exit

32:                                               ; preds = %27
  %33 = landingpad { ptr, i32 }
          cleanup
  %34 = load ptr, ptr %25, align 8, !tbaa !100
  %.not.i.i.i = icmp eq ptr %34, null
  br i1 %.not.i.i.i, label %.body.i, label %35

35:                                               ; preds = %32
  %36 = invoke noundef zeroext i1 %34(ptr noundef nonnull align 8 dereferenceable(32) %24, ptr noundef nonnull align 8 dereferenceable(32) %24, i32 noundef 3)
          to label %.body.i unwind label %37

37:                                               ; preds = %35
  %38 = landingpad { ptr, i32 }
          catch ptr null
  %39 = extractvalue { ptr, i32 } %38, 0
  call void @__clang_call_terminate(ptr %39) #21
  unreachable

.body.i:                                          ; preds = %35, %32
  call void @_ZN2cv16ParallelLoopBodyD2Ev(ptr noundef nonnull align 8 dereferenceable(40) %3) #17
  br label %.body

_ZN2cv29ParallelLoopBodyLambdaWrapperC2ESt8functionIFvRKNS_5RangeEEE.exit: ; preds = %_ZNSt8functionIFvRKN2cv5RangeEEEC2ERKS5_.exit.thread, %29, %_ZNSt8functionIFvRKN2cv5RangeEEEC2ERKS5_.exit
  %40 = phi ptr [ %10, %_ZNSt8functionIFvRKN2cv5RangeEEEC2ERKS5_.exit.thread ], [ %25, %29 ], [ %25, %_ZNSt8functionIFvRKN2cv5RangeEEEC2ERKS5_.exit ]
  %41 = phi ptr [ %9, %_ZNSt8functionIFvRKN2cv5RangeEEEC2ERKS5_.exit.thread ], [ %24, %29 ], [ %24, %_ZNSt8functionIFvRKN2cv5RangeEEEC2ERKS5_.exit ]
  invoke void @_ZN2cv13parallel_for_ERKNS_5RangeERKNS_16ParallelLoopBodyEd(ptr noundef nonnull align 4 dereferenceable(8) %0, ptr noundef nonnull align 8 dereferenceable(8) %3, double noundef -1.000000e+00)
          to label %42 unwind label %55

42:                                               ; preds = %_ZN2cv29ParallelLoopBodyLambdaWrapperC2ESt8functionIFvRKNS_5RangeEEE.exit
  store ptr getelementptr inbounds nuw inrange(-16, 24) (i8, ptr @_ZTVN2cv29ParallelLoopBodyLambdaWrapperE, i64 16), ptr %3, align 8, !tbaa !108
  %43 = load ptr, ptr %40, align 8, !tbaa !100
  %.not.i.i5 = icmp eq ptr %43, null
  br i1 %.not.i.i5, label %_ZN2cv29ParallelLoopBodyLambdaWrapperD2Ev.exit, label %44

44:                                               ; preds = %42
  %45 = invoke noundef zeroext i1 %43(ptr noundef nonnull align 8 dereferenceable(32) %41, ptr noundef nonnull align 8 dereferenceable(32) %41, i32 noundef 3)
          to label %_ZN2cv29ParallelLoopBodyLambdaWrapperD2Ev.exit unwind label %46

46:                                               ; preds = %44
  %47 = landingpad { ptr, i32 }
          catch ptr null
  %48 = extractvalue { ptr, i32 } %47, 0
  call void @__clang_call_terminate(ptr %48) #21
  unreachable

_ZN2cv29ParallelLoopBodyLambdaWrapperD2Ev.exit:   ; preds = %42, %44
  call void @_ZN2cv16ParallelLoopBodyD2Ev(ptr noundef nonnull align 8 dereferenceable(40) %3) #17
  %49 = load ptr, ptr %5, align 8, !tbaa !100
  %.not.i = icmp eq ptr %49, null
  br i1 %.not.i, label %_ZNSt14_Function_baseD2Ev.exit, label %50

50:                                               ; preds = %_ZN2cv29ParallelLoopBodyLambdaWrapperD2Ev.exit
  %51 = invoke noundef zeroext i1 %49(ptr noundef nonnull align 8 dereferenceable(32) %4, ptr noundef nonnull align 8 dereferenceable(32) %4, i32 noundef 3)
          to label %_ZNSt14_Function_baseD2Ev.exit unwind label %52

52:                                               ; preds = %50
  %53 = landingpad { ptr, i32 }
          catch ptr null
  %54 = extractvalue { ptr, i32 } %53, 0
  call void @__clang_call_terminate(ptr %54) #21
  unreachable

_ZNSt14_Function_baseD2Ev.exit:                   ; preds = %_ZN2cv29ParallelLoopBodyLambdaWrapperD2Ev.exit, %50
  call void @llvm.lifetime.end.p0(i64 40, ptr nonnull %3) #17
  ret void

55:                                               ; preds = %_ZN2cv29ParallelLoopBodyLambdaWrapperC2ESt8functionIFvRKNS_5RangeEEE.exit
  %56 = landingpad { ptr, i32 }
          cleanup
  call void @_ZN2cv29ParallelLoopBodyLambdaWrapperD2Ev(ptr noundef nonnull align 8 dereferenceable(40) %3) #17
  br label %.body

.body:                                            ; preds = %.body.i, %55
  %.pn = phi { ptr, i32 } [ %56, %55 ], [ %33, %.body.i ]
  %57 = load ptr, ptr %5, align 8, !tbaa !100
  %.not.i7 = icmp eq ptr %57, null
  br i1 %.not.i7, label %_ZNSt14_Function_baseD2Ev.exit8, label %58

58:                                               ; preds = %.body
  %59 = invoke noundef zeroext i1 %57(ptr noundef nonnull align 8 dereferenceable(32) %4, ptr noundef nonnull align 8 dereferenceable(32) %4, i32 noundef 3)
          to label %_ZNSt14_Function_baseD2Ev.exit8 unwind label %60

60:                                               ; preds = %58
  %61 = landingpad { ptr, i32 }
          catch ptr null
  %62 = extractvalue { ptr, i32 } %61, 0
  call void @__clang_call_terminate(ptr %62) #21
  unreachable

_ZNSt14_Function_baseD2Ev.exit8:                  ; preds = %.body, %58
  call void @llvm.lifetime.end.p0(i64 40, ptr nonnull %3) #17
  br label %common.resume
}